target datalayout = "e-m:e-p270:32:32-p271:32:32-p272:64:64-i64:64-i128:128-f80:128-n8:16:32:64-S128"
target triple = "x86_64-pc-linux-gnu"

; Function Attrs: mustprogress nounwind uwtable
define noundef i32 @_Z9wcsnicompPKwS0_m(ptr noundef %0, ptr noundef %1, i64 noundef %2) #1 {
  %4 = alloca i32, align 4
  %5 = alloca ptr, align 8
  %6 = alloca ptr, align 8
  %7 = alloca i64, align 8
  %8 = alloca i32, align 4
  %9 = alloca i32, align 4
  store ptr %0, ptr %5, align 8
  store ptr %1, ptr %6, align 8
  store i64 %2, ptr %7, align 8
  %10 = load i64, ptr %7, align 8
  %11 = icmp eq i64 %10, 0
  br i1 %11, label %12, label %13

12:                                               ; preds = %3
  store i32 0, ptr %4, align 4
  br label %44

13:                                               ; preds = %3
  br label %14

14:                                               ; preds = %38, %13
  %15 = load ptr, ptr %5, align 8
  %16 = load i32, ptr %15, align 4
  %17 = call i32 @towupper(i32 noundef %16) #6
  store i32 %17, ptr %8, align 4
  %18 = load ptr, ptr %6, align 8
  %19 = load i32, ptr %18, align 4
  %20 = call i32 @towupper(i32 noundef %19) #6
  store i32 %20, ptr %9, align 4
  %21 = load i32, ptr %8, align 4
  %22 = load i32, ptr %9, align 4
  %23 = icmp ne i32 %21, %22
  br i1 %23, label %24, label %29

24:                                               ; preds = %14
  %25 = load i32, ptr %8, align 4
  %26 = load i32, ptr %9, align 4
  %27 = icmp slt i32 %25, %26
  %28 = select i1 %27, i32 -1, i32 1
  store i32 %28, ptr %4, align 4
  br label %44

29:                                               ; preds = %14
  %30 = load ptr, ptr %5, align 8
  %31 = load i32, ptr %30, align 4
  %32 = icmp eq i32 %31, 0
  br i1 %32, label %37, label %33

33:                                               ; preds = %29
  %34 = load i64, ptr %7, align 8
  %35 = add i64 %34, -1
  store i64 %35, ptr %7, align 8
  %36 = icmp eq i64 %35, 0
  br i1 %36, label %37, label %38

37:                                               ; preds = %33, %29
  br label %43

38:                                               ; preds = %33
  %39 = load ptr, ptr %5, align 8
  %40 = getelementptr inbounds i32, ptr %39, i32 1
  store ptr %40, ptr %5, align 8
  %41 = load ptr, ptr %6, align 8
  %42 = getelementptr inbounds i32, ptr %41, i32 1
  store ptr %42, ptr %6, align 8
  br label %14, !llvm.loop !16

43:                                               ; preds = %37
  store i32 0, ptr %4, align 4
  br label %44

44:                                               ; preds = %43, %24, %12
  %45 = load i32, ptr %4, align 4
  ret i32 %45
}