; Function Attrs: mustprogress nounwind uwtable
define noundef range(i32 -1, 2) i32 @_Z9wcsnicompPKwS0_m(ptr noundef readonly captures(none) %0, ptr noundef readonly captures(none) %1, i64 noundef %2) local_unnamed_addr #0 {
  %4 = icmp eq i64 %2, 0
  br i1 %4, label %.loopexit, label %.preheader

.preheader:                                       ; preds = %3
  %5 = load i32, ptr %0, align 4
  %6 = tail call i32 @towupper(i32 noundef %5) #12
  %7 = load i32, ptr %1, align 4
  %8 = tail call i32 @towupper(i32 noundef %7) #12
  %.not21 = icmp eq i32 %6, %8
  br i1 %.not21, label %.lr.ph, label %._crit_edge

._crit_edge:                                      ; preds = %16, %.preheader
  %.lcssa19 = phi i32 [ %6, %.preheader ], [ %20, %16 ]
  %.lcssa = phi i32 [ %8, %.preheader ], [ %22, %16 ]
  %9 = icmp slt i32 %.lcssa19, %.lcssa
  %10 = select i1 %9, i32 -1, i32 1
  br label %.loopexit

.lr.ph:                                           ; preds = %.preheader, %16
  %.01124 = phi ptr [ %17, %16 ], [ %0, %.preheader ]
  %.01223 = phi i64 [ %14, %16 ], [ %2, %.preheader ]
  %.01322 = phi ptr [ %18, %16 ], [ %1, %.preheader ]
  %11 = load i32, ptr %.01124, align 4
  %12 = icmp eq i32 %11, 0
  br i1 %12, label %.loopexit, label %13

13:                                               ; preds = %.lr.ph
  %14 = add i64 %.01223, -1
  %15 = icmp eq i64 %14, 0
  br i1 %15, label %.loopexit, label %16

16:                                               ; preds = %13
  %17 = getelementptr inbounds nuw i8, ptr %.01124, i64 4
  %18 = getelementptr inbounds nuw i8, ptr %.01322, i64 4
  %19 = load i32, ptr %17, align 4
  %20 = tail call i32 @towupper(i32 noundef %19) #12
  %21 = load i32, ptr %18, align 4
  %22 = tail call i32 @towupper(i32 noundef %21) #12
  %.not = icmp eq i32 %20, %22
  br i1 %.not, label %.lr.ph, label %._crit_edge, !llvm.loop !16

.loopexit:                                        ; preds = %13, %.lr.ph, %3, %._crit_edge
  %.0 = phi i32 [ %10, %._crit_edge ], [ 0, %3 ], [ 0, %.lr.ph ], [ 0, %13 ]
  ret i32 %.0
}